target datalayout = "e-m:e-p270:32:32-p271:32:32-p272:64:64-i64:64-i128:128-f80:128-n8:16:32:64-S128"
target triple = "x86_64-pc-linux-gnu"

; Function Attrs: nounwind uwtable
define hidden void @timelib_unixtime2date(i64 noundef %0, ptr noundef %1, ptr noundef %2, ptr noundef %3) #0 {
  %5 = alloca i64, align 8
  %6 = alloca ptr, align 8
  %7 = alloca ptr, align 8
  %8 = alloca ptr, align 8
  %9 = alloca i64, align 8
  %10 = alloca i64, align 8
  %11 = alloca i64, align 8
  %12 = alloca i64, align 8
  %13 = alloca i64, align 8
  %14 = alloca i64, align 8
  %15 = alloca i64, align 8
  store i64 %0, ptr %5, align 8, !tbaa !4
  store ptr %1, ptr %6, align 8, !tbaa !8
  store ptr %2, ptr %7, align 8, !tbaa !8
  store ptr %3, ptr %8, align 8, !tbaa !8
  call void @llvm.lifetime.start.p0(i64 8, ptr %9) #3
  call void @llvm.lifetime.start.p0(i64 8, ptr %10) #3
  call void @llvm.lifetime.start.p0(i64 8, ptr %11) #3
  call void @llvm.lifetime.start.p0(i64 8, ptr %12) #3
  call void @llvm.lifetime.start.p0(i64 8, ptr %13) #3
  call void @llvm.lifetime.start.p0(i64 8, ptr %14) #3
  call void @llvm.lifetime.start.p0(i64 8, ptr %15) #3
  %16 = load i64, ptr %5, align 8, !tbaa !4
  %17 = sdiv i64 %16, 86400
  %18 = add i64 %17, 719468
  store i64 %18, ptr %9, align 8, !tbaa !4
  %19 = load i64, ptr %5, align 8, !tbaa !4
  %20 = srem i64 %19, 86400
  store i64 %20, ptr %11, align 8, !tbaa !4
  %21 = load i64, ptr %11, align 8, !tbaa !4
  %22 = icmp slt i64 %21, 0
  %23 = select i1 %22, i32 -1, i32 0
  %24 = sext i32 %23 to i64
  %25 = load i64, ptr %9, align 8, !tbaa !4
  %26 = add i64 %25, %24
  store i64 %26, ptr %9, align 8, !tbaa !4
  %27 = load i64, ptr %9, align 8, !tbaa !4
  %28 = icmp sge i64 %27, 0
  br i1 %28, label %29, label %31

29:                                               ; preds = %4
  %30 = load i64, ptr %9, align 8, !tbaa !4
  br label %35

31:                                               ; preds = %4
  %32 = load i64, ptr %9, align 8, !tbaa !4
  %33 = sub i64 %32, 146097
  %34 = add i64 %33, 1
  br label %35

35:                                               ; preds = %31, %29
  %36 = phi i64 [ %30, %29 ], [ %34, %31 ]
  %37 = sdiv i64 %36, 146097
  store i64 %37, ptr %10, align 8, !tbaa !4
  %38 = load i64, ptr %9, align 8, !tbaa !4
  %39 = load i64, ptr %10, align 8, !tbaa !4
  %40 = mul i64 %39, 146097
  %41 = sub i64 %38, %40
  store i64 %41, ptr %12, align 8, !tbaa !4
  %42 = load i64, ptr %12, align 8, !tbaa !4
  %43 = load i64, ptr %12, align 8, !tbaa !4
  %44 = udiv i64 %43, 1460
  %45 = sub i64 %42, %44
  %46 = load i64, ptr %12, align 8, !tbaa !4
  %47 = udiv i64 %46, 36524
  %48 = add i64 %45, %47
  %49 = load i64, ptr %12, align 8, !tbaa !4
  %50 = udiv i64 %49, 146096
  %51 = sub i64 %48, %50
  %52 = udiv i64 %51, 365
  store i64 %52, ptr %13, align 8, !tbaa !4
  %53 = load i64, ptr %13, align 8, !tbaa !4
  %54 = load i64, ptr %10, align 8, !tbaa !4
  %55 = mul i64 %54, 400
  %56 = add i64 %53, %55
  %57 = load ptr, ptr %6, align 8, !tbaa !8
  store i64 %56, ptr %57, align 8, !tbaa !4
  %58 = load i64, ptr %12, align 8, !tbaa !4
  %59 = load i64, ptr %13, align 8, !tbaa !4
  %60 = mul i64 365, %59
  %61 = load i64, ptr %13, align 8, !tbaa !4
  %62 = udiv i64 %61, 4
  %63 = add i64 %60, %62
  %64 = load i64, ptr %13, align 8, !tbaa !4
  %65 = udiv i64 %64, 100
  %66 = sub i64 %63, %65
  %67 = sub i64 %58, %66
  store i64 %67, ptr %14, align 8, !tbaa !4
  %68 = load i64, ptr %14, align 8, !tbaa !4
  %69 = mul i64 5, %68
  %70 = add i64 %69, 2
  %71 = udiv i64 %70, 153
  store i64 %71, ptr %15, align 8, !tbaa !4
  %72 = load i64, ptr %14, align 8, !tbaa !4
  %73 = load i64, ptr %15, align 8, !tbaa !4
  %74 = mul i64 153, %73
  %75 = add i64 %74, 2
  %76 = udiv i64 %75, 5
  %77 = sub i64 %72, %76
  %78 = add i64 %77, 1
  %79 = load ptr, ptr %8, align 8, !tbaa !8
  store i64 %78, ptr %79, align 8, !tbaa !4
  %80 = load i64, ptr %15, align 8, !tbaa !4
  %81 = load i64, ptr %15, align 8, !tbaa !4
  %82 = icmp ult i64 %81, 10
  %83 = select i1 %82, i32 3, i32 -9
  %84 = sext i32 %83 to i64
  %85 = add i64 %80, %84
  %86 = load ptr, ptr %7, align 8, !tbaa !8
  store i64 %85, ptr %86, align 8, !tbaa !4
  %87 = load ptr, ptr %7, align 8, !tbaa !8
  %88 = load i64, ptr %87, align 8, !tbaa !4
  %89 = icmp sle i64 %88, 2
  %90 = zext i1 %89 to i32
  %91 = sext i32 %90 to i64
  %92 = load ptr, ptr %6, align 8, !tbaa !8
  %93 = load i64, ptr %92, align 8, !tbaa !4
  %94 = add i64 %93, %91
  store i64 %94, ptr %92, align 8, !tbaa !4
  call void @llvm.lifetime.end.p0(i64 8, ptr %15) #3
  call void @llvm.lifetime.end.p0(i64 8, ptr %14) #3
  call void @llvm.lifetime.end.p0(i64 8, ptr %13) #3
  call void @llvm.lifetime.end.p0(i64 8, ptr %12) #3
  call void @llvm.lifetime.end.p0(i64 8, ptr %11) #3
  call void @llvm.lifetime.end.p0(i64 8, ptr %10) #3
  call void @llvm.lifetime.end.p0(i64 8, ptr %9) #3
  ret void
}