; Function Attrs: mustprogress nofree norecurse nosync nounwind willreturn memory(argmem: readwrite) uwtable
define hidden void @timelib_unixtime2date(i64 noundef %0, ptr noundef captures(none) initializes((0, 8)) %1, ptr noundef writeonly captures(none) initializes((0, 8)) %2, ptr noundef writeonly captures(none) initializes((0, 8)) %3) local_unnamed_addr #0 {
  %5 = sdiv i64 %0, 86400
  %6 = add nsw i64 %5, 719468
  %7 = srem i64 %0, 86400
  %.lobit = ashr i64 %7, 63
  %8 = add nsw i64 %6, %.lobit
  %9 = add nsw i64 %8, -146096
  %10 = icmp slt i64 %8, 0
  %11 = select i1 %10, i64 %9, i64 %8
  %12 = sdiv i64 %11, 146097
  %.neg = mul nsw i64 %12, -146097
  %13 = add nsw i64 %.neg, %8
  %14 = udiv i64 %13, 1460
  %15 = udiv i64 %13, 36524
  %16 = udiv i64 %13, 146096
  %.neg33 = add nsw i64 %15, %13
  %17 = add nuw nsw i64 %16, %14
  %18 = sub nsw i64 %.neg33, %17
  %19 = udiv i64 %18, 365
  %20 = mul nsw i64 %12, 400
  %21 = add nsw i64 %19, %20
  store i64 %21, ptr %1, align 8, !tbaa !4
  %22 = udiv i64 %18, 1460
  %23 = udiv i64 %18, 36500
  %.neg35 = mul i64 %19, -365
  %.neg36 = sub nsw i64 %13, %22
  %.neg28 = add nsw i64 %.neg36, %23
  %24 = add i64 %.neg28, %.neg35
  %25 = mul i64 %24, 5
  %26 = add i64 %25, 2
  %27 = udiv i64 %26, 153
  %28 = mul nuw i64 %27, 153
  %29 = add nuw i64 %28, 2
  %30 = udiv i64 %29, 5
  %31 = add i64 %24, 1
  %32 = sub i64 %31, %30
  store i64 %32, ptr %3, align 8, !tbaa !4
  %33 = icmp ult i64 %26, 1530
  %34 = select i1 %33, i64 3, i64 -9
  %35 = add nsw i64 %34, %27
  store i64 %35, ptr %2, align 8, !tbaa !4
  %36 = icmp slt i64 %35, 3
  %37 = zext i1 %36 to i64
  %38 = load i64, ptr %1, align 8, !tbaa !4
  %39 = add i64 %38, %37
  store i64 %39, ptr %1, align 8, !tbaa !4
  ret void
}